target datalayout = "e-m:e-p270:32:32-p271:32:32-p272:64:64-i64:64-i128:128-f80:128-n8:16:32:64-S128"
target triple = "x86_64-pc-linux-gnu"

%"class.i18n::phonenumbers::UnicodeText::const_iterator" = type { ptr }

; Function Attrs: mustprogress nounwind uwtable
define dso_local noundef i32 @_ZNK4i18n12phonenumbers11UnicodeText14const_iterator8get_utf8EPc(ptr noundef nonnull align 8 dereferenceable(8) %0, ptr noundef %1) #1 align 2 {
  %3 = alloca i32, align 4
  %4 = alloca ptr, align 8
  %5 = alloca ptr, align 8
  store ptr %0, ptr %4, align 8, !tbaa !4
  store ptr %1, ptr %5, align 8, !tbaa !12
  %6 = load ptr, ptr %4, align 8
  %7 = getelementptr inbounds nuw %"class.i18n::phonenumbers::UnicodeText::const_iterator", ptr %6, i32 0, i32 0
  %8 = load ptr, ptr %7, align 8, !tbaa !9
  %9 = getelementptr inbounds i8, ptr %8, i64 0
  %10 = load i8, ptr %9, align 1, !tbaa !15
  %11 = load ptr, ptr %5, align 8, !tbaa !12
  %12 = getelementptr inbounds i8, ptr %11, i64 0
  store i8 %10, ptr %12, align 1, !tbaa !15
  %13 = getelementptr inbounds nuw %"class.i18n::phonenumbers::UnicodeText::const_iterator", ptr %6, i32 0, i32 0
  %14 = load ptr, ptr %13, align 8, !tbaa !9
  %15 = getelementptr inbounds i8, ptr %14, i64 0
  %16 = load i8, ptr %15, align 1, !tbaa !15
  %17 = zext i8 %16 to i32
  %18 = icmp slt i32 %17, 128
  br i1 %18, label %19, label %20

19:                                               ; preds = %2
  store i32 1, ptr %3, align 4
  br label %55

20:                                               ; preds = %2
  %21 = getelementptr inbounds nuw %"class.i18n::phonenumbers::UnicodeText::const_iterator", ptr %6, i32 0, i32 0
  %22 = load ptr, ptr %21, align 8, !tbaa !9
  %23 = getelementptr inbounds i8, ptr %22, i64 1
  %24 = load i8, ptr %23, align 1, !tbaa !15
  %25 = load ptr, ptr %5, align 8, !tbaa !12
  %26 = getelementptr inbounds i8, ptr %25, i64 1
  store i8 %24, ptr %26, align 1, !tbaa !15
  %27 = getelementptr inbounds nuw %"class.i18n::phonenumbers::UnicodeText::const_iterator", ptr %6, i32 0, i32 0
  %28 = load ptr, ptr %27, align 8, !tbaa !9
  %29 = getelementptr inbounds i8, ptr %28, i64 0
  %30 = load i8, ptr %29, align 1, !tbaa !15
  %31 = zext i8 %30 to i32
  %32 = icmp slt i32 %31, 224
  br i1 %32, label %33, label %34

33:                                               ; preds = %20
  store i32 2, ptr %3, align 4
  br label %55

34:                                               ; preds = %20
  %35 = getelementptr inbounds nuw %"class.i18n::phonenumbers::UnicodeText::const_iterator", ptr %6, i32 0, i32 0
  %36 = load ptr, ptr %35, align 8, !tbaa !9
  %37 = getelementptr inbounds i8, ptr %36, i64 2
  %38 = load i8, ptr %37, align 1, !tbaa !15
  %39 = load ptr, ptr %5, align 8, !tbaa !12
  %40 = getelementptr inbounds i8, ptr %39, i64 2
  store i8 %38, ptr %40, align 1, !tbaa !15
  %41 = getelementptr inbounds nuw %"class.i18n::phonenumbers::UnicodeText::const_iterator", ptr %6, i32 0, i32 0
  %42 = load ptr, ptr %41, align 8, !tbaa !9
  %43 = getelementptr inbounds i8, ptr %42, i64 0
  %44 = load i8, ptr %43, align 1, !tbaa !15
  %45 = zext i8 %44 to i32
  %46 = icmp slt i32 %45, 240
  br i1 %46, label %47, label %48

47:                                               ; preds = %34
  store i32 3, ptr %3, align 4
  br label %55

48:                                               ; preds = %34
  %49 = getelementptr inbounds nuw %"class.i18n::phonenumbers::UnicodeText::const_iterator", ptr %6, i32 0, i32 0
  %50 = load ptr, ptr %49, align 8, !tbaa !9
  %51 = getelementptr inbounds i8, ptr %50, i64 3
  %52 = load i8, ptr %51, align 1, !tbaa !15
  %53 = load ptr, ptr %5, align 8, !tbaa !12
  %54 = getelementptr inbounds i8, ptr %53, i64 3
  store i8 %52, ptr %54, align 1, !tbaa !15
  store i32 4, ptr %3, align 4
  br label %55

55:                                               ; preds = %48, %47, %33, %19
  %56 = load i32, ptr %3, align 4
  ret i32 %56
}