; Function Attrs: mustprogress nofree norecurse nosync nounwind willreturn memory(read, argmem: readwrite, inaccessiblemem: none) uwtable
define dso_local noundef range(i32 1, 5) i32 @_ZNK4i18n12phonenumbers11UnicodeText14const_iterator8get_utf8EPc(ptr noundef nonnull readonly align 8 captures(none) dereferenceable(8) %0, ptr noundef writeonly captures(none) initializes((0, 1)) %1) local_unnamed_addr #14 align 2 {
  %3 = load ptr, ptr %0, align 8, !tbaa !4
  %4 = load i8, ptr %3, align 1, !tbaa !10
  store i8 %4, ptr %1, align 1, !tbaa !10
  %5 = load ptr, ptr %0, align 8, !tbaa !4
  %6 = load i8, ptr %5, align 1, !tbaa !10
  %7 = icmp sgt i8 %6, -1
  br i1 %7, label %26, label %8

8:                                                ; preds = %2
  %9 = getelementptr inbounds nuw i8, ptr %5, i64 1
  %10 = load i8, ptr %9, align 1, !tbaa !10
  %11 = getelementptr inbounds nuw i8, ptr %1, i64 1
  store i8 %10, ptr %11, align 1, !tbaa !10
  %12 = load ptr, ptr %0, align 8, !tbaa !4
  %13 = load i8, ptr %12, align 1, !tbaa !10
  %14 = icmp ult i8 %13, -32
  br i1 %14, label %26, label %15

15:                                               ; preds = %8
  %16 = getelementptr inbounds nuw i8, ptr %12, i64 2
  %17 = load i8, ptr %16, align 1, !tbaa !10
  %18 = getelementptr inbounds nuw i8, ptr %1, i64 2
  store i8 %17, ptr %18, align 1, !tbaa !10
  %19 = load ptr, ptr %0, align 8, !tbaa !4
  %20 = load i8, ptr %19, align 1, !tbaa !10
  %21 = icmp ult i8 %20, -16
  br i1 %21, label %26, label %22

22:                                               ; preds = %15
  %23 = getelementptr inbounds nuw i8, ptr %19, i64 3
  %24 = load i8, ptr %23, align 1, !tbaa !10
  %25 = getelementptr inbounds nuw i8, ptr %1, i64 3
  store i8 %24, ptr %25, align 1, !tbaa !10
  br label %26

26:                                               ; preds = %15, %8, %2, %22
  %.0 = phi i32 [ 4, %22 ], [ 1, %2 ], [ 2, %8 ], [ 3, %15 ]
  ret i32 %.0
}